target datalayout = "e-m:e-p270:32:32-p271:32:32-p272:64:64-i64:64-i128:128-f80:128-n8:16:32:64-S128"
target triple = "x86_64-pc-linux-gnu"

%struct.KINMemRec = type { ptr, double, ptr, ptr, double, double, i32, i64, i64, i64, i64, i32, i32, i32, i32, i32, i32, i32, i32, double, double, double, double, double, double, double, double, double, i32, double, i64, i64, i64, i64, i64, i64, i64, ptr, ptr, ptr, ptr, ptr, ptr, ptr, ptr, ptr, ptr, ptr, i32, i32, double, ptr, ptr, ptr, ptr, ptr, double, ptr, ptr, ptr, ptr, i64, i64, i32, ptr, ptr, i32, ptr, ptr, i64, i64, i64, i64, ptr, ptr, ptr, ptr, i32, ptr, double, double, double, double, double, i32, double, double, double, i32 }

@.str = private unnamed_addr constant [118 x i8] c"generated/home/dtcxzyw/WorkSpace/Projects/compilers/llvm-opt-benchmark/bench/sundials/sundials/src/kinsol/kinsol_io.c\00", align 1
@.str.1 = private unnamed_addr constant [27 x i8] c"kinsol_mem = NULL illegal.\00", align 1
@__func__.KINSetEtaConstValue = private unnamed_addr constant [20 x i8] c"KINSetEtaConstValue\00", align 1
@.str.10 = private unnamed_addr constant [18 x i8] c"eta out of range.\00", align 1

; Function Attrs: nounwind uwtable
define i32 @KINSetEtaConstValue(ptr noundef %0, double noundef %1) #0 {
  %3 = alloca i32, align 4
  %4 = alloca ptr, align 8
  %5 = alloca double, align 8
  %6 = alloca ptr, align 8
  %7 = alloca i32, align 4
  store ptr %0, ptr %4, align 8, !tbaa !3
  store double %1, ptr %5, align 8, !tbaa !20
  call void @llvm.lifetime.start.p0(i64 8, ptr %6) #5
  %8 = load ptr, ptr %4, align 8, !tbaa !3
  %9 = icmp eq ptr %8, null
  br i1 %9, label %10, label %11

10:                                               ; preds = %2
  call void (ptr, i32, i32, ptr, ptr, ptr, ...) @KINProcessError(ptr noundef null, i32 noundef -1, i32 noundef 446, ptr noundef @__func__.KINSetEtaConstValue, ptr noundef @.str, ptr noundef @.str.1)
  store i32 -1, ptr %3, align 4
  store i32 1, ptr %7, align 4
  br label %31

11:                                               ; preds = %2
  %12 = load ptr, ptr %4, align 8, !tbaa !3
  store ptr %12, ptr %6, align 8, !tbaa !7
  %13 = load double, ptr %5, align 8, !tbaa !20
  %14 = fcmp olt double %13, 0.000000e+00
  br i1 %14, label %18, label %15

15:                                               ; preds = %11
  %16 = load double, ptr %5, align 8, !tbaa !20
  %17 = fcmp ogt double %16, 1.000000e+00
  br i1 %17, label %18, label %20

18:                                               ; preds = %15, %11
  %19 = load ptr, ptr %6, align 8, !tbaa !7
  call void (ptr, i32, i32, ptr, ptr, ptr, ...) @KINProcessError(ptr noundef %19, i32 noundef -2, i32 noundef 454, ptr noundef @__func__.KINSetEtaConstValue, ptr noundef @.str, ptr noundef @.str.10)
  store i32 -2, ptr %3, align 4
  store i32 1, ptr %7, align 4
  br label %31

20:                                               ; preds = %15
  %21 = load double, ptr %5, align 8, !tbaa !20
  %22 = fcmp oeq double %21, 0.000000e+00
  br i1 %22, label %23, label %26

23:                                               ; preds = %20
  %24 = load ptr, ptr %6, align 8, !tbaa !7
  %25 = getelementptr inbounds nuw %struct.KINMemRec, ptr %24, i32 0, i32 25
  store double 1.000000e-01, ptr %25, align 8, !tbaa !37
  br label %30

26:                                               ; preds = %20
  %27 = load double, ptr %5, align 8, !tbaa !20
  %28 = load ptr, ptr %6, align 8, !tbaa !7
  %29 = getelementptr inbounds nuw %struct.KINMemRec, ptr %28, i32 0, i32 25
  store double %27, ptr %29, align 8, !tbaa !37
  br label %30

30:                                               ; preds = %26, %23
  store i32 0, ptr %3, align 4
  store i32 1, ptr %7, align 4
  br label %31

31:                                               ; preds = %30, %18, %10
  call void @llvm.lifetime.end.p0(i64 8, ptr %6) #5
  %32 = load i32, ptr %3, align 4
  ret i32 %32
}